; Function Attrs: mustprogress uwtable
define internal noundef ptr @_ZNK9grpc_core11json_detail10AutoLoaderINS_13RefCountedPtrINS_12_GLOBAL__N_115PickFirstConfigEEEE7EmplaceEPv(ptr nonnull readnone align 8 captures(none) %0, ptr noundef captures(none) %1) unnamed_addr #4 align 2 personality ptr @__gxx_personality_v0 {
  %3 = tail call noalias noundef nonnull dereferenceable(24) ptr @_Znwm(i64 noundef 24) #36, !noalias !27
  %4 = getelementptr inbounds nuw i8, ptr %3, i64 16
  store i64 0, ptr %4, align 16, !noalias !27
  %5 = getelementptr inbounds nuw i8, ptr %3, i64 8
  store i64 1, ptr %5, align 8, !tbaa !30, !noalias !27
  store ptr getelementptr inbounds nuw inrange(-16, 24) (i8, ptr @_ZTVN9grpc_core12_GLOBAL__N_115PickFirstConfigE, i64 16), ptr %3, align 8, !tbaa !6, !noalias !27
  %6 = load ptr, ptr %1, align 8, !tbaa !33
  store ptr %3, ptr %1, align 8, !tbaa !33
  %.not.i.i = icmp eq ptr %6, null
  br i1 %.not.i.i, label %_ZN9grpc_core13RefCountedPtrINS_12_GLOBAL__N_115PickFirstConfigEED2Ev.exit, label %7

7:                                                ; preds = %2
  %8 = getelementptr inbounds nuw i8, ptr %6, i64 8
  %9 = atomicrmw sub ptr %8, i64 1 acq_rel, align 8
  %10 = icmp eq i64 %9, 1
  br i1 %10, label %11, label %_ZN9grpc_core13RefCountedPtrINS_12_GLOBAL__N_115PickFirstConfigEED2Ev.exit, !prof !35

11:                                               ; preds = %7
  %12 = load ptr, ptr %6, align 8, !tbaa !6
  %13 = getelementptr inbounds nuw i8, ptr %12, i64 8
  %14 = load ptr, ptr %13, align 8
  tail call void %14(ptr noundef nonnull align 8 dereferenceable(16) %6) #37
  br label %_ZN9grpc_core13RefCountedPtrINS_12_GLOBAL__N_115PickFirstConfigEED2Ev.exit

_ZN9grpc_core13RefCountedPtrINS_12_GLOBAL__N_115PickFirstConfigEED2Ev.exit: ; preds = %11, %7, %2
  %.val3 = load ptr, ptr %1, align 8, !tbaa !36
  ret ptr %.val3
}